(lp0
(dp1
Vcity
p2
VTempe
p3
sVreview_count
p4
I794
sVname
p5
VCornish Pasty Company
p6
sVneighborhoods
p7
(lp8
sVtype
p9
Vbusiness
p10
sVbusiness_id
p11
VWNy1uzcmm_UHmTyR--o5IA
p12
sVfull_address
p13
V960 W University Dr\u000aTempe, AZ 85281
p14
sVhours
p15
(dp16
VMonday
p17
(dp18
Vclose
p19
V00:00
p20
sVopen
p21
V11:00
p22
ssVTuesday
p23
(dp24
Vclose
p25
V00:00
p26
sVopen
p27
V11:00
p28
ssVFriday
p29
(dp30
Vclose
p31
V00:00
p32
sVopen
p33
V11:00
p34
ssVWednesday
p35
(dp36
Vclose
p37
V00:00
p38
sVopen
p39
V11:00
p40
ssVThursday
p41
(dp42
Vclose
p43
V00:00
p44
sVopen
p45
V11:00
p46
ssVSunday
p47
(dp48
Vclose
p49
V22:00
p50
sVopen
p51
V12:00
p52
ssVSaturday
p53
(dp54
Vclose
p55
V00:00
p56
sVopen
p57
V11:00
p58
sssVstate
p59
VAZ
p60
sVlongitude
p61
F-111.951494
sVstars
p62
F4.5
sVlatitude
p63
F33.422728
sVattributes
p64
(dp65
VAlcohol
p66
Vfull_bar
p67
sVOpen 24 Hours
p68
I00
sVNoise Level
p69
Vaverage
p70
sVMusic
p71
(dp72
Vdj
p73
I00
sVbackground_music
p74
I01
sVkaraoke
p75
I00
sVlive
p76
I00
sVvideo
p77
I00
sVjukebox
p78
I00
ssVAttire
p79
Vcasual
p80
sVAmbience
p81
(dp82
Vromantic
p83
I00
sVintimate
p84
I00
sVtouristy
p85
I00
sVhipster
p86
I00
sVdivey
p87
I00
sVclassy
p88
I00
sVtrendy
p89
I00
sVupscale
p90
I00
sVcasual
p91
I01
ssVGood for Kids
p92
I00
sVPrice Range
p93
I2
sVGood For Dancing
p94
I00
sVDelivery
p95
I00
sVCoat Check
p96
I00
sVSmoking
p97
Vno
p98
sVAccepts Credit Cards
p99
I01
sVBYOB/Corkage
p100
Vyes_free
p101
sVTake-out
p102
I01
sVCorkage
p103
I00
sVHappy Hour
p104
I01
sVWheelchair Accessible
p105
I01
sVOutdoor Seating
p106
I00
sVTakes Reservations
p107
I00
sVWaiter Service
p108
I00
sVWi-Fi
p109
Vno
p110
sVDietary Restrictions
p111
(dp112
Vdairy-free
p113
I00
sVgluten-free
p114
I00
sVvegan
p115
I00
sVkosher
p116
I00
sVhalal
p117
I00
sVsoy-free
p118
I00
sVvegetarian
p119
I01
ssVCaters
p120
I00
sVGood For
p121
(dp122
Vdessert
p123
I00
sVlatenight
p124
I00
sVlunch
p125
I01
sVdinner
p126
I01
sVbreakfast
p127
I00
sVbrunch
p128
I00
ssVParking
p129
(dp130
Vgarage
p131
I00
sVstreet
p132
I00
sVvalidated
p133
I00
sVlot
p134
I01
sVvalet
p135
I00
ssVHas TV
p136
I00
sVGood For Kids
p137
I01
sVGood For Groups
p138
I00
ssVopen
p139
I01
sVcategories
p140
(lp141
VPubs
p142
aVBars
p143
aVNightlife
p144
aVBritish
p145
aVRestaurants
p146
asa(dp147
Vcity
p148
VPhoenix
p149
sVreview_count
p150
I731
sVname
p151
VGallo Blanco
p152
sVneighborhoods
p153
(lp154
sVtype
p155
Vbusiness
p156
sVbusiness_id
p157
V-sC66z4SO3tR7nFCjfQwuQ
p158
sVfull_address
p159
V401 W Clarendon Ave\u000aPhoenix, AZ 85013
p160
sVhours
p161
(dp162
VMonday
p163
(dp164
Vclose
p165
V22:00
p166
sVopen
p167
V07:30
p168
ssVTuesday
p169
(dp170
Vclose
p171
V22:00
p172
sVopen
p173
V07:30
p174
ssVFriday
p175
(dp176
Vclose
p177
V23:00
p178
sVopen
p179
V07:30
p180
ssVWednesday
p181
(dp182
Vclose
p183
V22:00
p184
sVopen
p185
V07:30
p186
ssVThursday
p187
(dp188
Vclose
p189
V22:00
p190
sVopen
p191
V07:30
p192
ssVSunday
p193
(dp194
Vclose
p195
V22:00
p196
sVopen
p197
V07:30
p198
ssVSaturday
p199
(dp200
Vclose
p201
V23:00
p202
sVopen
p203
V07:30
p204
sssVstate
p205
VAZ
p206
sVlongitude
p207
F-112.0791977
sVstars
p208
F4.0
sVlatitude
p209
F33.491112
sVattributes
p210
(dp211
VAlcohol
p212
Vfull_bar
p213
sVNoise Level
p214
Vaverage
p215
sVMusic
p216
(dp217
Vdj
p218
I00
sVbackground_music
p219
I01
sVjukebox
p220
I00
sVlive
p221
I00
sVvideo
p222
I00
sVkaraoke
p223
I00
ssVAttire
p224
Vcasual
p225
sVAmbience
p226
(dp227
Vromantic
p228
I00
sVintimate
p229
I00
sVclassy
p230
I00
sVhipster
p231
I01
sVdivey
p232
I00
sVtouristy
p233
I00
sVtrendy
p234
I01
sVupscale
p235
I00
sVcasual
p236
I01
ssVGood for Kids
p237
I01
sVPrice Range
p238
I2
sVGood For Dancing
p239
I00
sVDelivery
p240
I00
sVCoat Check
p241
I00
sVSmoking
p242
Vno
p243
sVAccepts Credit Cards
p244
I01
sVTake-out
p245
I01
sVHappy Hour
p246
I01
sVWheelchair Accessible
p247
I01
sVOutdoor Seating
p248
I01
sVTakes Reservations
p249
I01
sVWaiter Service
p250
I01
sVWi-Fi
p251
Vfree
p252
sVCaters
p253
I00
sVGood For
p254
(dp255
Vdessert
p256
I00
sVlatenight
p257
I00
sVlunch
p258
I01
sVdinner
p259
I01
sVbreakfast
p260
I00
sVbrunch
p261
I00
ssVParking
p262
(dp263
Vgarage
p264
I00
sVstreet
p265
I01
sVvalidated
p266
I00
sVlot
p267
I01
sVvalet
p268
I00
ssVHas TV
p269
I00
sVGood For Groups
p270
I01
ssVopen
p271
I01
sVcategories
p272
(lp273
VBars
p274
aVCafes
p275
aVNightlife
p276
aVRestaurants
p277
asa(dp278
Vcity
p279
VPhoenix
p280
sVreview_count
p281
I724
sVname
p282
VMatt's Big Breakfast
p283
sVneighborhoods
p284
(lp285
sVtype
p286
Vbusiness
p287
sVbusiness_id
p288
VntN85eu27C04nwyPa8IHtw
p289
sVfull_address
p290
V801 N 1st St\u000aPhoenix, AZ 85004
p291
sVhours
p292
(dp293
VTuesday
p294
(dp295
Vclose
p296
V14:30
p297
sVopen
p298
V06:30
p299
ssVFriday
p300
(dp301
Vclose
p302
V14:30
p303
sVopen
p304
V06:30
p305
ssVWednesday
p306
(dp307
Vclose
p308
V14:30
p309
sVopen
p310
V06:30
p311
ssVThursday
p312
(dp313
Vclose
p314
V14:30
p315
sVopen
p316
V06:30
p317
ssVSunday
p318
(dp319
Vclose
p320
V14:30
p321
sVopen
p322
V06:30
p323
ssVSaturday
p324
(dp325
Vclose
p326
V14:30
p327
sVopen
p328
V06:30
p329
sssVstate
p330
VAZ
p331
sVlongitude
p332
F-112.072327136993
sVstars
p333
F4.0
sVlatitude
p334
F33.4566960573784
sVattributes
p335
(dp336
VWheelchair Accessible
p337
I01
sVAlcohol
p338
Vnone
p339
sVNoise Level
p340
Vaverage
p341
sVHas TV
p342
I00
sVAttire
p343
Vcasual
p344
sVAmbience
p345
(dp346
Vromantic
p347
I00
sVintimate
p348
I00
sVtouristy
p349
I00
sVhipster
p350
I00
sVdivey
p351
I00
sVclassy
p352
I00
sVtrendy
p353
I00
sVupscale
p354
I00
sVcasual
p355
I01
ssVGood for Kids
p356
I01
sVPrice Range
p357
I1
sVDelivery
p358
I00
sVCaters
p359
I00
sVBYOB
p360
I00
sVCorkage
p361
I00
sVAccepts Credit Cards
p362
I01
sVBYOB/Corkage
p363
Vyes_free
p364
sVTake-out
p365
I01
sVPayment Types
p366
(dp367
sVOutdoor Seating
p368
I00
sVTakes Reservations
p369
I00
sVWaiter Service
p370
I01
sVWi-Fi
p371
Vno
p372
sVOrder at Counter
p373
I01
sVGood For
p374
(dp375
Vdessert
p376
I00
sVlatenight
p377
I00
sVlunch
p378
I00
sVdinner
p379
I00
sVbreakfast
p380
I01
sVbrunch
p381
I00
ssVParking
p382
(dp383
Vgarage
p384
I00
sVstreet
p385
I01
sVvalidated
p386
I00
sVlot
p387
I00
sVvalet
p388
I00
ssVGood For Kids
p389
I01
sVGood For Groups
p390
I00
ssVopen
p391
I00
sVcategories
p392
(lp393
VBreakfast & Brunch
p394
aVRestaurants
p395
asa(dp396
Vcity
p397
VPhoenix
p398
sVreview_count
p399
I1124
sVname
p400
VPizzeria Bianco
p401
sVneighborhoods
p402
(lp403
sVtype
p404
Vbusiness
p405
sVbusiness_id
p406
VVVeogjZya58oiTxK7qUjAQ
p407
sVfull_address
p408
V623 E Adams St\u000aPhoenix, AZ 85004
p409
sVhours
p410
(dp411
VMonday
p412
(dp413
Vclose
p414
V21:00
p415
sVopen
p416
V11:00
p417
ssVTuesday
p418
(dp419
Vclose
p420
V22:00
p421
sVopen
p422
V11:00
p423
ssVFriday
p424
(dp425
Vclose
p426
V22:00
p427
sVopen
p428
V11:00
p429
ssVWednesday
p430
(dp431
Vclose
p432
V22:00
p433
sVopen
p434
V11:00
p435
ssVThursday
p436
(dp437
Vclose
p438
V22:00
p439
sVopen
p440
V11:00
p441
ssVSaturday
p442
(dp443
Vclose
p444
V22:00
p445
sVopen
p446
V11:00
p447
sssVstate
p448
VAZ
p449
sVlongitude
p450
F-112.065458
sVstars
p451
F4.0
sVlatitude
p452
F33.449233
sVattributes
p453
(dp454
VAlcohol
p455
Vbeer_and_wine
p456
sVOpen 24 Hours
p457
I00
sVNoise Level
p458
Vaverage
p459
sVHas TV
p460
I00
sVAttire
p461
Vcasual
p462
sVAmbience
p463
(dp464
Vromantic
p465
I00
sVintimate
p466
I00
sVtouristy
p467
I00
sVhipster
p468
I00
sVdivey
p469
I00
sVclassy
p470
I00
sVtrendy
p471
I01
sVupscale
p472
I00
sVcasual
p473
I01
ssVGood for Kids
p474
I00
sVPrice Range
p475
I2
sVDelivery
p476
I00
sVCaters
p477
I00
sVBYOB
p478
I00
sVCorkage
p479
I00
sVAccepts Credit Cards
p480
I01
sVBYOB/Corkage
p481
Vno
p482
sVTake-out
p483
I00
sVWheelchair Accessible
p484
I01
sVOutdoor Seating
p485
I00
sVTakes Reservations
p486
I00
sVWaiter Service
p487
I01
sVWi-Fi
p488
Vno
p489
sVOrder at Counter
p490
I01
sVGood For
p491
(dp492
Vdessert
p493
I00
sVlatenight
p494
I00
sVlunch
p495
I00
sVdinner
p496
I01
sVbreakfast
p497
I00
sVbrunch
p498
I00
ssVParking
p499
(dp500
Vgarage
p501
I01
sVstreet
p502
I01
sVvalidated
p503
I00
sVlot
p504
I01
sVvalet
p505
I00
ssVGood For Kids
p506
I00
sVGood For Groups
p507
I00
ssVopen
p508
I01
sVcategories
p509
(lp510
VItalian
p511
aVPizza
p512
aVSandwiches
p513
aVRestaurants
p514
asa(dp515
Vcity
p516
VGilbert
p517
sVreview_count
p518
I678
sVname
p519
VJoe's Farm Grill
p520
sVneighborhoods
p521
(lp522
sVtype
p523
Vbusiness
p524
sVbusiness_id
p525
VQnAzW6KMSciUcuJ20oI3Bw
p526
sVfull_address
p527
V3000 E Ray Rd\u000aBldg 1\u000aGilbert, AZ 85296
p528
sVhours
p529
(dp530
VMonday
p531
(dp532
Vclose
p533
V21:00
p534
sVopen
p535
V08:00
p536
ssVTuesday
p537
(dp538
Vclose
p539
V21:00
p540
sVopen
p541
V08:00
p542
ssVFriday
p543
(dp544
Vclose
p545
V21:00
p546
sVopen
p547
V08:00
p548
ssVWednesday
p549
(dp550
Vclose
p551
V21:00
p552
sVopen
p553
V08:00
p554
ssVThursday
p555
(dp556
Vclose
p557
V21:00
p558
sVopen
p559
V08:00
p560
ssVSunday
p561
(dp562
Vclose
p563
V21:00
p564
sVopen
p565
V08:00
p566
ssVSaturday
p567
(dp568
Vclose
p569
V21:00
p570
sVopen
p571
V08:00
p572
sssVstate
p573
VAZ
p574
sVlongitude
p575
F-111.723918914795
sVstars
p576
F4.0
sVlatitude
p577
F33.32106164479401
sVattributes
p578
(dp579
VAlcohol
p580
Vnone
p581
sVNoise Level
p582
Vaverage
p583
sVHas TV
p584
I00
sVAttire
p585
Vcasual
p586
sVAmbience
p587
(dp588
Vromantic
p589
I00
sVintimate
p590
I00
sVtouristy
p591
I00
sVhipster
p592
I00
sVdivey
p593
I00
sVclassy
p594
I00
sVtrendy
p595
I00
sVupscale
p596
I00
sVcasual
p597
I01
ssVGood for Kids
p598
I01
sVPrice Range
p599
I2
sVCaters
p600
I00
sVDelivery
p601
I00
sVDogs Allowed
p602
I01
sVCorkage
p603
I00
sVAccepts Credit Cards
p604
I01
sVBYOB/Corkage
p605
Vyes_free
p606
sVTake-out
p607
I01
sVWheelchair Accessible
p608
I01
sVOutdoor Seating
p609
I01
sVTakes Reservations
p610
I00
sVWaiter Service
p611
I00
sVWi-Fi
p612
Vfree
p613
sVGood For
p614
(dp615
Vdessert
p616
I00
sVlatenight
p617
I00
sVlunch
p618
I01
sVdinner
p619
I00
sVbreakfast
p620
I00
sVbrunch
p621
I00
ssVParking
p622
(dp623
Vgarage
p624
I00
sVstreet
p625
I00
sVvalidated
p626
I00
sVlot
p627
I01
sVvalet
p628
I00
ssVGood For Kids
p629
I01
sVGood For Groups
p630
I01
ssVopen
p631
I01
sVcategories
p632
(lp633
VAmerican (Traditional)
p634
aVRestaurants
p635
asa(dp636
Vcity
p637
VPhoenix
p638
sVreview_count
p639
I668
sVname
p640
VSt Francis Restaurant
p641
sVneighborhoods
p642
(lp643
sVtype
p644
Vbusiness
p645
sVbusiness_id
p646
VuKSX1n1RoAzGq4bV8GPHVg
p647
sVfull_address
p648
V111 E Camelback Rd\u000aPhoenix, AZ 85012
p649
sVhours
p650
(dp651
VMonday
p652
(dp653
Vclose
p654
V22:00
p655
sVopen
p656
V11:00
p657
ssVTuesday
p658
(dp659
Vclose
p660
V22:00
p661
sVopen
p662
V11:00
p663
ssVFriday
p664
(dp665
Vclose
p666
V23:00
p667
sVopen
p668
V11:00
p669
ssVWednesday
p670
(dp671
Vclose
p672
V22:00
p673
sVopen
p674
V11:00
p675
ssVThursday
p676
(dp677
Vclose
p678
V22:00
p679
sVopen
p680
V11:00
p681
ssVSunday
p682
(dp683
Vclose
p684
V21:00
p685
sVopen
p686
V09:00
p687
ssVSaturday
p688
(dp689
Vclose
p690
V23:00
p691
sVopen
p692
V09:00
p693
sssVstate
p694
VAZ
p695
sVlongitude
p696
F-112.0718179
sVstars
p697
F4.0
sVlatitude
p698
F33.5092611
sVattributes
p699
(dp700
VTake-out
p701
I01
sVAccepts Credit Cards
p702
I01
sVPrice Range
p703
I2
sVOutdoor Seating
p704
I01
sVCaters
p705
I00
sVNoise Level
p706
Vaverage
p707
sVParking
p708
(dp709
Vgarage
p710
I00
sVstreet
p711
I00
sVvalidated
p712
I00
sVlot
p713
I01
sVvalet
p714
I01
ssVGood For Groups
p715
I01
sVDelivery
p716
I00
sVDogs Allowed
p717
I00
sVAttire
p718
Vcasual
p719
sVHas TV
p720
I01
sVGood For
p721
(dp722
Vdessert
p723
I00
sVlatenight
p724
I00
sVlunch
p725
I00
sVdinner
p726
I01
sVbreakfast
p727
I00
sVbrunch
p728
I00
ssVTakes Reservations
p729
I01
sVAmbience
p730
(dp731
Vromantic
p732
I00
sVintimate
p733
I00
sVtouristy
p734
I00
sVhipster
p735
I00
sVdivey
p736
I00
sVclassy
p737
I00
sVtrendy
p738
I01
sVupscale
p739
I00
sVcasual
p740
I00
ssVWaiter Service
p741
I01
sVWi-Fi
p742
Vfree
p743
sVGood for Kids
p744
I00
sVAlcohol
p745
Vfull_bar
p746
sVWheelchair Accessible
p747
I01
ssVopen
p748
I01
sVcategories
p749
(lp750
VAmerican (New)
p751
aVRestaurants
p752
asa(dp753
Vcity
p754
VPhoenix
p755
sVreview_count
p756
I895
sVname
p757
VCibo
p758
sVneighborhoods
p759
(lp760
sVtype
p761
Vbusiness
p762
sVbusiness_id
p763
VV1nEpIRmEa1768oj_tuxeQ
p764
sVfull_address
p765
V603 N 5th Ave\u000aPhoenix, AZ 85003
p766
sVhours
p767
(dp768
VMonday
p769
(dp770
Vclose
p771
V21:00
p772
sVopen
p773
V11:00
p774
ssVTuesday
p775
(dp776
Vclose
p777
V22:00
p778
sVopen
p779
V11:00
p780
ssVFriday
p781
(dp782
Vclose
p783
V23:00
p784
sVopen
p785
V11:00
p786
ssVWednesday
p787
(dp788
Vclose
p789
V22:00
p790
sVopen
p791
V11:00
p792
ssVThursday
p793
(dp794
Vclose
p795
V22:00
p796
sVopen
p797
V11:00
p798
ssVSunday
p799
(dp800
Vclose
p801
V14:00
p802
sVopen
p803
V09:00
p804
ssVSaturday
p805
(dp806
Vclose
p807
V23:00
p808
sVopen
p809
V11:00
p810
sssVstate
p811
VAZ
p812
sVlongitude
p813
F-112.0800705
sVstars
p814
F4.5
sVlatitude
p815
F33.4548476
sVattributes
p816
(dp817
VAlcohol
p818
Vbeer_and_wine
p819
sVNoise Level
p820
Vaverage
p821
sVHas TV
p822
I00
sVAttire
p823
Vcasual
p824
sVAmbience
p825
(dp826
Vromantic
p827
I01
sVintimate
p828
I01
sVtouristy
p829
I00
sVhipster
p830
I00
sVdivey
p831
I00
sVclassy
p832
I00
sVtrendy
p833
I00
sVupscale
p834
I00
sVcasual
p835
I01
ssVGood for Kids
p836
I00
sVPrice Range
p837
I2
sVCaters
p838
I00
sVDelivery
p839
I00
sVDogs Allowed
p840
I01
sVCorkage
p841
I00
sVAccepts Credit Cards
p842
I01
sVBYOB/Corkage
p843
Vyes_free
p844
sVTake-out
p845
I01
sVWheelchair Accessible
p846
I01
sVOutdoor Seating
p847
I01
sVTakes Reservations
p848
I01
sVWaiter Service
p849
I01
sVWi-Fi
p850
Vno
p851
sVOrder at Counter
p852
I01
sVGood For
p853
(dp854
Vdessert
p855
I00
sVlatenight
p856
I00
sVlunch
p857
I00
sVdinner
p858
I01
sVbreakfast
p859
I00
sVbrunch
p860
I00
ssVParking
p861
(dp862
Vgarage
p863
I00
sVstreet
p864
I01
sVvalidated
p865
I00
sVlot
p866
I01
sVvalet
p867
I01
ssVGood For Kids
p868
I00
sVGood For Groups
p869
I01
ssVopen
p870
I01
sVcategories
p871
(lp872
VItalian
p873
aVPizza
p874
aVSandwiches
p875
aVRestaurants
p876
asa(dp877
Vcity
p878
VPhoenix
p879
sVreview_count
p880
I810
sVname
p881
VPostino Arcadia
p882
sVneighborhoods
p883
(lp884
sVtype
p885
Vbusiness
p886
sVbusiness_id
p887
VSDwYQ6eSu1htn8vHWv128g
p888
sVfull_address
p889
V3939 E Campbell Ave\u000aPhoenix, AZ 85018
p890
sVhours
p891
(dp892
VMonday
p893
(dp894
Vclose
p895
V23:00
p896
sVopen
p897
V11:00
p898
ssVTuesday
p899
(dp900
Vclose
p901
V23:00
p902
sVopen
p903
V11:00
p904
ssVFriday
p905
(dp906
Vclose
p907
V00:00
p908
sVopen
p909
V11:00
p910
ssVWednesday
p911
(dp912
Vclose
p913
V23:00
p914
sVopen
p915
V11:00
p916
ssVThursday
p917
(dp918
Vclose
p919
V23:00
p920
sVopen
p921
V11:00
p922
ssVSunday
p923
(dp924
Vclose
p925
V22:00
p926
sVopen
p927
V09:00
p928
ssVSaturday
p929
(dp930
Vclose
p931
V00:00
p932
sVopen
p933
V09:00
p934
sssVstate
p935
VAZ
p936
sVlongitude
p937
F-111.996292
sVstars
p938
F4.5
sVlatitude
p939
F33.502191
sVattributes
p940
(dp941
VAlcohol
p942
Vbeer_and_wine
p943
sVOpen 24 Hours
p944
I00
sVNoise Level
p945
Vaverage
p946
sVMusic
p947
(dp948
Vdj
p949
I00
sVbackground_music
p950
I01
sVkaraoke
p951
I00
sVlive
p952
I00
sVvideo
p953
I00
sVjukebox
p954
I00
ssVAttire
p955
Vcasual
p956
sVAmbience
p957
(dp958
Vromantic
p959
I00
sVintimate
p960
I00
sVtouristy
p961
I00
sVhipster
p962
I01
sVdivey
p963
I00
sVclassy
p964
I00
sVtrendy
p965
I01
sVupscale
p966
I00
sVcasual
p967
I00
ssVGood for Kids
p968
I00
sVPrice Range
p969
I2
sVDelivery
p970
I00
sVGood For Dancing
p971
I00
sVBYOB
p972
I00
sVCoat Check
p973
I00
sVSmoking
p974
Voutdoor
p975
sVAccepts Credit Cards
p976
I01
sVBYOB/Corkage
p977
Vno
p978
sVTake-out
p979
I01
sVCorkage
p980
I00
sVHappy Hour
p981
I01
sVWheelchair Accessible
p982
I01
sVOutdoor Seating
p983
I01
sVTakes Reservations
p984
I01
sVWaiter Service
p985
I01
sVWi-Fi
p986
Vno
p987
sVDietary Restrictions
p988
(dp989
Vdairy-free
p990
I00
sVgluten-free
p991
I00
sVvegan
p992
I01
sVkosher
p993
I00
sVhalal
p994
I00
sVsoy-free
p995
I00
sVvegetarian
p996
I01
ssVCaters
p997
I01
sVOrder at Counter
p998
I00
sVGood For
p999
(dp1000
Vdessert
p1001
I00
sVlatenight
p1002
I00
sVlunch
p1003
I01
sVdinner
p1004
I01
sVbreakfast
p1005
I00
sVbrunch
p1006
I00
ssVParking
p1007
(dp1008
Vgarage
p1009
I00
sVstreet
p1010
I00
sVvalidated
p1011
I00
sVlot
p1012
I00
sVvalet
p1013
I01
ssVHas TV
p1014
I00
sVGood For Kids
p1015
I00
sVGood For Groups
p1016
I01
ssVopen
p1017
I01
sVcategories
p1018
(lp1019
VWine Bars
p1020
aVBars
p1021
aVRestaurants
p1022
aVNightlife
p1023
aVItalian
p1024
asa(dp1025
Vcity
p1026
VTempe
p1027
sVreview_count
p1028
I956
sVname
p1029
VFour Peaks Brewing Co
p1030
sVneighborhoods
p1031
(lp1032
sVtype
p1033
Vbusiness
p1034
sVbusiness_id
p1035
VJokKtdXU7zXHcr20Lrk29A
p1036
sVfull_address
p1037
V1340 E 8th St\u000aSte 104\u000aTempe, AZ 85281
p1038
sVhours
p1039
(dp1040
VMonday
p1041
(dp1042
Vclose
p1043
V02:00
p1044
sVopen
p1045
V11:00
p1046
ssVTuesday
p1047
(dp1048
Vclose
p1049
V02:00
p1050
sVopen
p1051
V11:00
p1052
ssVFriday
p1053
(dp1054
Vclose
p1055
V02:00
p1056
sVopen
p1057
V11:00
p1058
ssVWednesday
p1059
(dp1060
Vclose
p1061
V02:00
p1062
sVopen
p1063
V11:00
p1064
ssVThursday
p1065
(dp1066
Vclose
p1067
V02:00
p1068
sVopen
p1069
V11:00
p1070
ssVSunday
p1071
(dp1072
Vclose
p1073
V02:00
p1074
sVopen
p1075
V10:00
p1076
ssVSaturday
p1077
(dp1078
Vclose
p1079
V02:00
p1080
sVopen
p1081
V11:00
p1082
sssVstate
p1083
VAZ
p1084
sVlongitude
p1085
F-111.9159126
sVstars
p1086
F4.5
sVlatitude
p1087
F33.4195384
sVattributes
p1088
(dp1089
VAlcohol
p1090
Vfull_bar
p1091
sVNoise Level
p1092
Vloud
p1093
sVMusic
p1094
(dp1095
Vdj
p1096
I00
sVbackground_music
p1097
I01
sVkaraoke
p1098
I00
sVlive
p1099
I00
sVvideo
p1100
I00
sVjukebox
p1101
I00
ssVAttire
p1102
Vcasual
p1103
sVAmbience
p1104
(dp1105
Vromantic
p1106
I00
sVintimate
p1107
I00
sVtouristy
p1108
I00
sVhipster
p1109
I00
sVdivey
p1110
I00
sVclassy
p1111
I00
sVtrendy
p1112
I00
sVupscale
p1113
I00
sVcasual
p1114
I01
ssVGood for Kids
p1115
I00
sVPrice Range
p1116
I2
sVDelivery
p1117
I00
sVGood For Dancing
p1118
I00
sVBYOB
p1119
I00
sVCoat Check
p1120
I00
sVSmoking
p1121
Voutdoor
p1122
sVAccepts Credit Cards
p1123
I01
sVBYOB/Corkage
p1124
Vyes_free
p1125
sVTake-out
p1126
I01
sVCorkage
p1127
I00
sVHappy Hour
p1128
I01
sVWheelchair Accessible
p1129
I01
sVOutdoor Seating
p1130
I01
sVTakes Reservations
p1131
I01
sVWaiter Service
p1132
I01
sVWi-Fi
p1133
Vno
p1134
sVCaters
p1135
I00
sVGood For
p1136
(dp1137
Vdessert
p1138
I00
sVlatenight
p1139
I00
sVlunch
p1140
I01
sVdinner
p1141
I01
sVbreakfast
p1142
I00
sVbrunch
p1143
I00
ssVParking
p1144
(dp1145
Vgarage
p1146
I00
sVstreet
p1147
I01
sVvalidated
p1148
I00
sVlot
p1149
I01
sVvalet
p1150
I00
ssVHas TV
p1151
I01
sVGood For Kids
p1152
I00
sVGood For Groups
p1153
I01
ssVopen
p1154
I01
sVcategories
p1155
(lp1156
VBars
p1157
aVFood
p1158
aVBreweries
p1159
aVPubs
p1160
aVNightlife
p1161
aVAmerican (New)
p1162
aVRestaurants
p1163
asa(dp1164
Vcity
p1165
VPhoenix
p1166
sVreview_count
p1167
I911
sVname
p1168
VFEZ
p1169
sVneighborhoods
p1170
(lp1171
sVtype
p1172
Vbusiness
p1173
sVbusiness_id
p1174
VEWMwV5V9BxNs_U6nNVMeqw
p1175
sVfull_address
p1176
V3815 N Central Ave\u000aPhoenix, AZ 85012
p1177
sVhours
p1178
(dp1179
VMonday
p1180
(dp1181
Vclose
p1182
V00:00
p1183
sVopen
p1184
V11:00
p1185
ssVTuesday
p1186
(dp1187
Vclose
p1188
V00:00
p1189
sVopen
p1190
V11:00
p1191
ssVFriday
p1192
(dp1193
Vclose
p1194
V01:00
p1195
sVopen
p1196
V11:00
p1197
ssVWednesday
p1198
(dp1199
Vclose
p1200
V00:00
p1201
sVopen
p1202
V11:00
p1203
ssVThursday
p1204
(dp1205
Vclose
p1206
V00:00
p1207
sVopen
p1208
V11:00
p1209
ssVSunday
p1210
(dp1211
Vclose
p1212
V00:00
p1213
sVopen
p1214
V10:00
p1215
ssVSaturday
p1216
(dp1217
Vclose
p1218
V01:00
p1219
sVopen
p1220
V10:00
p1221
sssVstate
p1222
VAZ
p1223
sVlongitude
p1224
F-112.0734977
sVstars
p1225
F4.0
sVlatitude
p1226
F33.4916953
sVattributes
p1227
(dp1228
VWheelchair Accessible
p1229
I01
sVAlcohol
p1230
Vfull_bar
p1231
sVNoise Level
p1232
Vaverage
p1233
sVMusic
p1234
(dp1235
Vdj
p1236
I00
sVbackground_music
p1237
I01
sVkaraoke
p1238
I00
sVlive
p1239
I00
sVvideo
p1240
I00
sVjukebox
p1241
I00
ssVAttire
p1242
Vcasual
p1243
sVAmbience
p1244
(dp1245
Vromantic
p1246
I00
sVintimate
p1247
I00
sVtouristy
p1248
I00
sVhipster
p1249
I00
sVdivey
p1250
I00
sVclassy
p1251
I00
sVtrendy
p1252
I01
sVupscale
p1253
I00
sVcasual
p1254
I00
ssVGood for Kids
p1255
I00
sVPrice Range
p1256
I2
sVDelivery
p1257
I00
sVGood For Dancing
p1258
I00
sVBYOB
p1259
I00
sVDogs Allowed
p1260
I01
sVCoat Check
p1261
I00
sVSmoking
p1262
Voutdoor
p1263
sVAccepts Credit Cards
p1264
I01
sVBYOB/Corkage
p1265
Vyes_free
p1266
sVTake-out
p1267
I01
sVCorkage
p1268
I00
sVHappy Hour
p1269
I01
sVPayment Types
p1270
(dp1271
Vamex
p1272
I01
sVcash_only
p1273
I00
sVmastercard
p1274
I01
sVvisa
p1275
I01
sVdiscover
p1276
I01
ssVOutdoor Seating
p1277
I01
sVTakes Reservations
p1278
I01
sVWaiter Service
p1279
I01
sVWi-Fi
p1280
Vfree
p1281
sVCaters
p1282
I00
sVOrder at Counter
p1283
I00
sVGood For
p1284
(dp1285
Vdessert
p1286
I00
sVlatenight
p1287
I00
sVlunch
p1288
I00
sVdinner
p1289
I01
sVbreakfast
p1290
I00
sVbrunch
p1291
I00
ssVParking
p1292
(dp1293
Vgarage
p1294
I00
sVstreet
p1295
I00
sVvalidated
p1296
I00
sVlot
p1297
I01
sVvalet
p1298
I00
ssVHas TV
p1299
I00
sVGood For Kids
p1300
I00
sVGood For Groups
p1301
I01
ssVopen
p1302
I01
sVcategories
p1303
(lp1304
VBars
p1305
aVMediterranean
p1306
aVNightlife
p1307
aVLounges
p1308
aVAmerican (New)
p1309
aVRestaurants
p1310
asa.